target datalayout = "e-m:e-p270:32:32-p271:32:32-p272:64:64-i64:64-i128:128-f80:128-n8:16:32:64-S128"
target triple = "x86_64-pc-linux-gnu"

%struct.pmix_mca_base_framework_t = type { ptr, ptr, ptr, ptr, ptr, ptr, i32, i32, ptr, ptr, i32, i32, %struct.pmix_list_t, %struct.pmix_list_t }
%struct.pmix_list_t = type { %struct.pmix_object_t, %struct.pmix_list_item_t, i64 }
%struct.pmix_object_t = type { %union.pthread_mutex_t, ptr, i32, %struct.pmix_tma }
%union.pthread_mutex_t = type { %struct.__pthread_mutex_s }
%struct.__pthread_mutex_s = type { i32, i32, i32, i32, i32, i16, i16, %struct.__pthread_internal_list }
%struct.__pthread_internal_list = type { ptr, ptr }
%struct.pmix_tma = type { ptr, ptr, ptr, ptr, ptr, ptr, ptr, ptr }
%struct.pmix_list_item_t = type { %struct.pmix_object_t, ptr, ptr, i32 }
%struct.pmix_output_desc_t = type { i8, i8, i32, i8, i32, ptr, ptr, i32, ptr, i32, i8, i8, i8, i8, ptr, i32, i32 }
%struct.event = type { %struct.event_callback, %union.anon.0, i32, ptr, %union.anon.2, i16, i16, %struct.timeval }
%struct.event_callback = type { %struct.anon, i16, i8, i8, %union.anon, ptr }
%struct.anon = type { ptr, ptr }
%union.anon = type { ptr }
%union.anon.0 = type { %struct.anon.1 }
%struct.anon.1 = type { ptr, ptr }
%union.anon.2 = type { %struct.anon.3 }
%struct.anon.3 = type { %struct.anon.4, %struct.timeval }
%struct.anon.4 = type { ptr, ptr }
%struct.timeval = type { i64, i64 }
%struct.prte_process_info_t = type { %struct.pmix_proc, %struct.pmix_proc, ptr, %struct.pmix_proc, i32, i32, i32, ptr, ptr, i32, i8, ptr, i16, ptr, ptr, i8, ptr, i8 }
%struct.pmix_proc = type { [256 x i8], i32 }
%struct.prte_state_base_module_1_0_0_t = type { ptr, ptr, ptr, ptr, ptr, ptr, ptr, ptr, ptr, ptr }
%struct.local_jobtracker_t = type { %struct.pmix_list_item_t, ptr, %struct.event, [256 x i8], %struct.pmix_pointer_array_t, i32 }
%struct.pmix_pointer_array_t = type { %struct.pmix_object_t, i32, i32, i32, i32, i32, ptr, ptr }
%struct.prte_job_t = type { %struct.pmix_list_item_t, i32, ptr, ptr, [256 x i8], ptr, i32, i32, ptr, ptr, i32, i32, i32, i32, ptr, ptr, ptr, i32, i32, i32, i32, i32, i32, i32, %struct.pmix_proc, i32, i16, %struct.pmix_list_t, %struct.pmix_data_buffer, %struct.pmix_list_t, [256 x i8], i32, ptr, %struct.pmix_cli_result_t }
%struct.pmix_data_buffer = type { ptr, ptr, ptr, i64, i64 }
%struct.pmix_cli_result_t = type { %struct.pmix_object_t, %struct.pmix_list_t, ptr }

@.str.3 = private unnamed_addr constant [19 x i8] c"help-ras-slurm.txt\00", align 1
@prte_ras_base_framework = external global %struct.pmix_mca_base_framework_t, align 8
@pmix_output_info = external global [0 x %struct.pmix_output_desc_t], align 8
@.str.7 = private unnamed_addr constant [19 x i8] c"ras_slurm_module.c\00", align 1
@prte_process_info = external global %struct.prte_process_info_t, align 8
@prte_state_base_framework = external global %struct.pmix_mca_base_framework_t, align 8
@.str.24 = private unnamed_addr constant [42 x i8] c"%s [%f] ACTIVATE JOB %s STATE %s AT %s:%d\00", align 1
@.str.25 = private unnamed_addr constant [5 x i8] c"NULL\00", align 1
@prte_state = external global %struct.prte_state_base_module_1_0_0_t, align 8
@.str.64 = private unnamed_addr constant [24 x i8] c"slurm-dyn-alloc-timeout\00", align 1
@.str.65 = private unnamed_addr constant [35 x i8] c"%s Timed out on dynamic allocation\00", align 1

; Function Attrs: nounwind uwtable
define internal void @timeout(i32 noundef %0, i16 noundef signext %1, ptr noundef %2) #0 {
  %4 = alloca i32, align 4
  %5 = alloca i16, align 2
  %6 = alloca ptr, align 8
  %7 = alloca ptr, align 8
  %8 = alloca ptr, align 8
  %9 = alloca ptr, align 8
  %10 = alloca double, align 8
  %11 = alloca %struct.timeval, align 8
  store i32 %0, ptr %4, align 4, !tbaa !30
  store i16 %1, ptr %5, align 2, !tbaa !8
  store ptr %2, ptr %6, align 8, !tbaa !48
  call void @llvm.lifetime.start.p0(i64 8, ptr %7) #14
  %12 = load ptr, ptr %6, align 8, !tbaa !48
  store ptr %12, ptr %7, align 8, !tbaa !48
  call void @llvm.lifetime.start.p0(i64 8, ptr %8) #14
  %13 = call i32 (ptr, ptr, i32, ...) @pmix_show_help(ptr noundef @.str.3, ptr noundef @.str.64, i32 noundef 1)
  %14 = load i32, ptr getelementptr inbounds nuw (%struct.pmix_mca_base_framework_t, ptr @prte_ras_base_framework, i32 0, i32 11), align 4, !tbaa !18
  %15 = icmp sge i32 %14, 0
  br i1 %15, label %16, label %29

16:                                               ; preds = %3
  %17 = load i32, ptr getelementptr inbounds nuw (%struct.pmix_mca_base_framework_t, ptr @prte_ras_base_framework, i32 0, i32 11), align 4, !tbaa !18
  %18 = icmp slt i32 %17, 64
  br i1 %18, label %19, label %29

19:                                               ; preds = %16
  %20 = load i32, ptr getelementptr inbounds nuw (%struct.pmix_mca_base_framework_t, ptr @prte_ras_base_framework, i32 0, i32 11), align 4, !tbaa !18
  %21 = sext i32 %20 to i64
  %22 = getelementptr inbounds [0 x %struct.pmix_output_desc_t], ptr @pmix_output_info, i64 0, i64 %21
  %23 = getelementptr inbounds nuw %struct.pmix_output_desc_t, ptr %22, i32 0, i32 2
  %24 = load i32, ptr %23, align 4, !tbaa !28
  %25 = icmp sge i32 %24, 2
  br i1 %25, label %26, label %29

26:                                               ; preds = %19
  %27 = load i32, ptr getelementptr inbounds nuw (%struct.pmix_mca_base_framework_t, ptr @prte_ras_base_framework, i32 0, i32 11), align 4, !tbaa !18
  %28 = call ptr @prte_util_print_name_args(ptr noundef @prte_process_info)
  call void (i32, ptr, ...) @pmix_output(i32 noundef %27, ptr noundef @.str.65, ptr noundef %28)
  br label %29

29:                                               ; preds = %26, %19, %16, %3
  %30 = load ptr, ptr %7, align 8, !tbaa !48
  %31 = getelementptr inbounds nuw %struct.local_jobtracker_t, ptr %30, i32 0, i32 3
  %32 = getelementptr inbounds [256 x i8], ptr %31, i64 0, i64 0
  %33 = call ptr @prte_get_job_data_object(ptr noundef %32)
  store ptr %33, ptr %8, align 8, !tbaa !48
  br label %34

34:                                               ; preds = %29
  call void @llvm.lifetime.start.p0(i64 8, ptr %9) #14
  %35 = load ptr, ptr %8, align 8, !tbaa !48
  store ptr %35, ptr %9, align 8, !tbaa !48
  %36 = load i32, ptr getelementptr inbounds nuw (%struct.pmix_mca_base_framework_t, ptr @prte_state_base_framework, i32 0, i32 10), align 8, !tbaa !97
  %37 = icmp sgt i32 %36, 0
  br i1 %37, label %38, label %80

38:                                               ; preds = %34
  call void @llvm.lifetime.start.p0(i64 8, ptr %10) #14
  store double 0.000000e+00, ptr %10, align 8, !tbaa !98
  br label %39

39:                                               ; preds = %38
  call void @llvm.lifetime.start.p0(i64 16, ptr %11) #14
  %40 = call i32 @gettimeofday(ptr noundef %11, ptr noundef null) #14
  %41 = getelementptr inbounds nuw %struct.timeval, ptr %11, i32 0, i32 0
  %42 = load i64, ptr %41, align 8, !tbaa !100
  %43 = sitofp i64 %42 to double
  store double %43, ptr %10, align 8, !tbaa !98
  %44 = getelementptr inbounds nuw %struct.timeval, ptr %11, i32 0, i32 1
  %45 = load i64, ptr %44, align 8, !tbaa !101
  %46 = sitofp i64 %45 to double
  %47 = fdiv double %46, 1.000000e+06
  %48 = load double, ptr %10, align 8, !tbaa !98
  %49 = fadd double %48, %47
  store double %49, ptr %10, align 8, !tbaa !98
  call void @llvm.lifetime.end.p0(i64 16, ptr %11) #14
  br label %50

50:                                               ; preds = %39
  br label %51

51:                                               ; preds = %50
  %52 = load i32, ptr getelementptr inbounds nuw (%struct.pmix_mca_base_framework_t, ptr @prte_state_base_framework, i32 0, i32 11), align 4, !tbaa !18
  %53 = icmp sge i32 %52, 0
  br i1 %53, label %54, label %79

54:                                               ; preds = %51
  %55 = load i32, ptr getelementptr inbounds nuw (%struct.pmix_mca_base_framework_t, ptr @prte_state_base_framework, i32 0, i32 11), align 4, !tbaa !18
  %56 = icmp slt i32 %55, 64
  br i1 %56, label %57, label %79

57:                                               ; preds = %54
  %58 = load i32, ptr getelementptr inbounds nuw (%struct.pmix_mca_base_framework_t, ptr @prte_state_base_framework, i32 0, i32 11), align 4, !tbaa !18
  %59 = sext i32 %58 to i64
  %60 = getelementptr inbounds [0 x %struct.pmix_output_desc_t], ptr @pmix_output_info, i64 0, i64 %59
  %61 = getelementptr inbounds nuw %struct.pmix_output_desc_t, ptr %60, i32 0, i32 2
  %62 = load i32, ptr %61, align 4, !tbaa !28
  %63 = icmp sge i32 %62, 1
  br i1 %63, label %64, label %79

64:                                               ; preds = %57
  %65 = load i32, ptr getelementptr inbounds nuw (%struct.pmix_mca_base_framework_t, ptr @prte_state_base_framework, i32 0, i32 11), align 4, !tbaa !18
  %66 = call ptr @prte_util_print_name_args(ptr noundef @prte_process_info)
  %67 = load double, ptr %10, align 8, !tbaa !98
  %68 = load ptr, ptr %9, align 8, !tbaa !48
  %69 = icmp eq ptr null, %68
  br i1 %69, label %70, label %71

70:                                               ; preds = %64
  br label %76

71:                                               ; preds = %64
  %72 = load ptr, ptr %9, align 8, !tbaa !48
  %73 = getelementptr inbounds nuw %struct.prte_job_t, ptr %72, i32 0, i32 4
  %74 = getelementptr inbounds [256 x i8], ptr %73, i64 0, i64 0
  %75 = call ptr @prte_util_print_jobids(ptr noundef %74)
  br label %76

76:                                               ; preds = %71, %70
  %77 = phi ptr [ @.str.25, %70 ], [ %75, %71 ]
  %78 = call ptr @prte_job_state_to_str(i32 noundef 68)
  call void (i32, ptr, ...) @pmix_output(i32 noundef %65, ptr noundef @.str.24, ptr noundef %66, double noundef %67, ptr noundef %77, ptr noundef %78, ptr noundef @.str.7, i32 noundef 745)
  br label %79

79:                                               ; preds = %76, %57, %54, %51
  call void @llvm.lifetime.end.p0(i64 8, ptr %10) #14
  br label %80

80:                                               ; preds = %79, %34
  %81 = load ptr, ptr getelementptr inbounds nuw (%struct.prte_state_base_module_1_0_0_t, ptr @prte_state, i32 0, i32 2), align 8, !tbaa !102
  %82 = load ptr, ptr %9, align 8, !tbaa !48
  call void %81(ptr noundef %82, i32 noundef 68)
  call void @llvm.lifetime.end.p0(i64 8, ptr %9) #14
  br label %83

83:                                               ; preds = %80
  br label %84

84:                                               ; preds = %83
  call void @llvm.lifetime.end.p0(i64 8, ptr %8) #14
  call void @llvm.lifetime.end.p0(i64 8, ptr %7) #14
  ret void
}