; Function Attrs: nounwind uwtable
define internal void @timeout(i32 %0, i16 signext %1, ptr noundef %2) #0 {
  %4 = alloca %struct.timeval, align 8
  %5 = tail call i32 (ptr, ptr, i32, ...) @pmix_show_help(ptr noundef nonnull @.str.3, ptr noundef nonnull @.str.64, i32 noundef 1) #20
  %6 = load i32, ptr getelementptr inbounds nuw (i8, ptr @prte_ras_base_framework, i64 76), align 4, !tbaa !18
  %or.cond = icmp ult i32 %6, 64
  br i1 %or.cond, label %7, label %14

7:                                                ; preds = %3
  %8 = zext nneg i32 %6 to i64
  %9 = getelementptr inbounds nuw [0 x %struct.pmix_output_desc_t], ptr @pmix_output_info, i64 0, i64 %8, i32 2
  %10 = load i32, ptr %9, align 4, !tbaa !28
  %11 = icmp sgt i32 %10, 1
  br i1 %11, label %12, label %14

12:                                               ; preds = %7
  %13 = tail call ptr @prte_util_print_name_args(ptr noundef nonnull @prte_process_info) #20
  tail call void (i32, ptr, ...) @pmix_output(i32 noundef %6, ptr noundef nonnull @.str.65, ptr noundef %13) #20
  br label %14

14:                                               ; preds = %12, %7, %3
  %15 = getelementptr inbounds nuw i8, ptr %2, i64 280
  %16 = tail call ptr @prte_get_job_data_object(ptr noundef nonnull %15) #20
  %17 = load i32, ptr getelementptr inbounds nuw (i8, ptr @prte_state_base_framework, i64 72), align 8, !tbaa !96
  %18 = icmp sgt i32 %17, 0
  br i1 %18, label %19, label %43

19:                                               ; preds = %14
  call void @llvm.lifetime.start.p0(i64 16, ptr nonnull %4) #20
  %20 = call i32 @gettimeofday(ptr noundef nonnull %4, ptr noundef null) #20
  %21 = load i64, ptr %4, align 8, !tbaa !76
  %22 = sitofp i64 %21 to double
  %23 = getelementptr inbounds nuw i8, ptr %4, i64 8
  %24 = load i64, ptr %23, align 8, !tbaa !78
  %25 = sitofp i64 %24 to double
  %26 = fdiv double %25, 1.000000e+06
  %27 = fadd double %26, %22
  call void @llvm.lifetime.end.p0(i64 16, ptr nonnull %4) #20
  %28 = load i32, ptr getelementptr inbounds nuw (i8, ptr @prte_state_base_framework, i64 76), align 4, !tbaa !18
  %or.cond3 = icmp ult i32 %28, 64
  br i1 %or.cond3, label %29, label %43

29:                                               ; preds = %19
  %30 = zext nneg i32 %28 to i64
  %31 = getelementptr inbounds nuw [0 x %struct.pmix_output_desc_t], ptr @pmix_output_info, i64 0, i64 %30, i32 2
  %32 = load i32, ptr %31, align 4, !tbaa !28
  %33 = icmp sgt i32 %32, 0
  br i1 %33, label %34, label %43

34:                                               ; preds = %29
  %35 = tail call ptr @prte_util_print_name_args(ptr noundef nonnull @prte_process_info) #20
  %36 = icmp eq ptr %16, null
  br i1 %36, label %40, label %37

37:                                               ; preds = %34
  %38 = getelementptr inbounds nuw i8, ptr %16, i64 168
  %39 = tail call ptr @prte_util_print_jobids(ptr noundef nonnull %38) #20
  br label %40

40:                                               ; preds = %34, %37
  %41 = phi ptr [ %39, %37 ], [ @.str.25, %34 ]
  %42 = tail call ptr @prte_job_state_to_str(i32 noundef 68) #20
  tail call void (i32, ptr, ...) @pmix_output(i32 noundef %28, ptr noundef nonnull @.str.24, ptr noundef %35, double noundef %27, ptr noundef %41, ptr noundef %42, ptr noundef nonnull @.str.7, i32 noundef 745) #20
  br label %43

43:                                               ; preds = %19, %29, %40, %14
  %44 = load ptr, ptr getelementptr inbounds nuw (i8, ptr @prte_state, i64 16), align 8, !tbaa !97
  tail call void %44(ptr noundef %16, i32 noundef 68) #20
  ret void
}